target datalayout = "e-m:e-p270:32:32-p271:32:32-p272:64:64-i64:64-i128:128-f80:128-n8:16:32:64-S128"
target triple = "x86_64-pc-linux-gnu"

; Function Attrs: nounwind uwtable
define internal void @lpc_apply_welch_window_c(ptr noundef %0, i64 noundef %1, ptr noundef %2) #0 {
  %4 = alloca ptr, align 8
  %5 = alloca i64, align 8
  %6 = alloca ptr, align 8
  %7 = alloca i32, align 4
  %8 = alloca i32, align 4
  %9 = alloca double, align 8
  %10 = alloca double, align 8
  %11 = alloca i32, align 4
  store ptr %0, ptr %4, align 8, !tbaa !9
  store i64 %1, ptr %5, align 8, !tbaa !58
  store ptr %2, ptr %6, align 8, !tbaa !13
  call void @llvm.lifetime.start.p0(i64 4, ptr %7) #9
  call void @llvm.lifetime.start.p0(i64 4, ptr %8) #9
  call void @llvm.lifetime.start.p0(i64 8, ptr %9) #9
  call void @llvm.lifetime.start.p0(i64 8, ptr %10) #9
  %12 = load i64, ptr %5, align 8, !tbaa !58
  %13 = icmp eq i64 %12, 1
  br i1 %13, label %14, label %17

14:                                               ; preds = %3
  %15 = load ptr, ptr %6, align 8, !tbaa !13
  %16 = getelementptr inbounds double, ptr %15, i64 0
  store double 0.000000e+00, ptr %16, align 8, !tbaa !20
  store i32 1, ptr %11, align 4
  br label %138

17:                                               ; preds = %3
  %18 = load i64, ptr %5, align 8, !tbaa !58
  %19 = ashr i64 %18, 1
  %20 = trunc i64 %19 to i32
  store i32 %20, ptr %8, align 4, !tbaa !11
  %21 = load i64, ptr %5, align 8, !tbaa !58
  %22 = sitofp i64 %21 to double
  %23 = fsub nsz double %22, 1.000000e+00
  %24 = fdiv nsz double 2.000000e+00, %23
  store double %24, ptr %10, align 8, !tbaa !20
  %25 = load i64, ptr %5, align 8, !tbaa !58
  %26 = and i64 %25, 1
  %27 = icmp ne i64 %26, 0
  br i1 %27, label %28, label %81

28:                                               ; preds = %17
  store i32 0, ptr %7, align 4, !tbaa !11
  br label %29

29:                                               ; preds = %73, %28
  %30 = load i32, ptr %7, align 4, !tbaa !11
  %31 = load i32, ptr %8, align 4, !tbaa !11
  %32 = icmp slt i32 %30, %31
  br i1 %32, label %33, label %76

33:                                               ; preds = %29
  %34 = load double, ptr %10, align 8, !tbaa !20
  %35 = load i32, ptr %7, align 4, !tbaa !11
  %36 = sitofp i32 %35 to double
  %37 = fsub nsz double %34, %36
  %38 = fsub nsz double %37, 1.000000e+00
  store double %38, ptr %9, align 8, !tbaa !20
  %39 = load double, ptr %9, align 8, !tbaa !20
  %40 = load double, ptr %9, align 8, !tbaa !20
  %41 = fneg nsz double %39
  %42 = call nsz double @llvm.fmuladd.f64(double %41, double %40, double 1.000000e+00)
  store double %42, ptr %9, align 8, !tbaa !20
  %43 = load ptr, ptr %4, align 8, !tbaa !9
  %44 = load i32, ptr %7, align 4, !tbaa !11
  %45 = sext i32 %44 to i64
  %46 = getelementptr inbounds i32, ptr %43, i64 %45
  %47 = load i32, ptr %46, align 4, !tbaa !11
  %48 = sitofp i32 %47 to double
  %49 = load double, ptr %9, align 8, !tbaa !20
  %50 = fmul nsz double %48, %49
  %51 = load ptr, ptr %6, align 8, !tbaa !13
  %52 = load i32, ptr %7, align 4, !tbaa !11
  %53 = sext i32 %52 to i64
  %54 = getelementptr inbounds double, ptr %51, i64 %53
  store double %50, ptr %54, align 8, !tbaa !20
  %55 = load ptr, ptr %4, align 8, !tbaa !9
  %56 = load i64, ptr %5, align 8, !tbaa !58
  %57 = sub nsw i64 %56, 1
  %58 = load i32, ptr %7, align 4, !tbaa !11
  %59 = sext i32 %58 to i64
  %60 = sub nsw i64 %57, %59
  %61 = getelementptr inbounds i32, ptr %55, i64 %60
  %62 = load i32, ptr %61, align 4, !tbaa !11
  %63 = sitofp i32 %62 to double
  %64 = load double, ptr %9, align 8, !tbaa !20
  %65 = fmul nsz double %63, %64
  %66 = load ptr, ptr %6, align 8, !tbaa !13
  %67 = load i64, ptr %5, align 8, !tbaa !58
  %68 = sub nsw i64 %67, 1
  %69 = load i32, ptr %7, align 4, !tbaa !11
  %70 = sext i32 %69 to i64
  %71 = sub nsw i64 %68, %70
  %72 = getelementptr inbounds double, ptr %66, i64 %71
  store double %65, ptr %72, align 8, !tbaa !20
  br label %73

73:                                               ; preds = %33
  %74 = load i32, ptr %7, align 4, !tbaa !11
  %75 = add nsw i32 %74, 1
  store i32 %75, ptr %7, align 4, !tbaa !11
  br label %29, !llvm.loop !60

76:                                               ; preds = %29
  %77 = load ptr, ptr %6, align 8, !tbaa !13
  %78 = load i32, ptr %8, align 4, !tbaa !11
  %79 = sext i32 %78 to i64
  %80 = getelementptr inbounds double, ptr %77, i64 %79
  store double 0.000000e+00, ptr %80, align 8, !tbaa !20
  store i32 1, ptr %11, align 4
  br label %138

81:                                               ; preds = %17
  %82 = load i32, ptr %8, align 4, !tbaa !11
  %83 = load ptr, ptr %6, align 8, !tbaa !13
  %84 = sext i32 %82 to i64
  %85 = getelementptr inbounds double, ptr %83, i64 %84
  store ptr %85, ptr %6, align 8, !tbaa !13
  %86 = load i32, ptr %8, align 4, !tbaa !11
  %87 = load ptr, ptr %4, align 8, !tbaa !9
  %88 = sext i32 %86 to i64
  %89 = getelementptr inbounds i32, ptr %87, i64 %88
  store ptr %89, ptr %4, align 8, !tbaa !9
  store i32 0, ptr %7, align 4, !tbaa !11
  br label %90

90:                                               ; preds = %134, %81
  %91 = load i32, ptr %7, align 4, !tbaa !11
  %92 = load i32, ptr %8, align 4, !tbaa !11
  %93 = icmp slt i32 %91, %92
  br i1 %93, label %94, label %137

94:                                               ; preds = %90
  %95 = load double, ptr %10, align 8, !tbaa !20
  %96 = load i32, ptr %8, align 4, !tbaa !11
  %97 = sitofp i32 %96 to double
  %98 = fsub nsz double %95, %97
  %99 = load i32, ptr %7, align 4, !tbaa !11
  %100 = sitofp i32 %99 to double
  %101 = fadd nsz double %98, %100
  store double %101, ptr %9, align 8, !tbaa !20
  %102 = load double, ptr %9, align 8, !tbaa !20
  %103 = load double, ptr %9, align 8, !tbaa !20
  %104 = fneg nsz double %102
  %105 = call nsz double @llvm.fmuladd.f64(double %104, double %103, double 1.000000e+00)
  store double %105, ptr %9, align 8, !tbaa !20
  %106 = load ptr, ptr %4, align 8, !tbaa !9
  %107 = load i32, ptr %7, align 4, !tbaa !11
  %108 = sub nsw i32 0, %107
  %109 = sub nsw i32 %108, 1
  %110 = sext i32 %109 to i64
  %111 = getelementptr inbounds i32, ptr %106, i64 %110
  %112 = load i32, ptr %111, align 4, !tbaa !11
  %113 = sitofp i32 %112 to double
  %114 = load double, ptr %9, align 8, !tbaa !20
  %115 = fmul nsz double %113, %114
  %116 = load ptr, ptr %6, align 8, !tbaa !13
  %117 = load i32, ptr %7, align 4, !tbaa !11
  %118 = sub nsw i32 0, %117
  %119 = sub nsw i32 %118, 1
  %120 = sext i32 %119 to i64
  %121 = getelementptr inbounds double, ptr %116, i64 %120
  store double %115, ptr %121, align 8, !tbaa !20
  %122 = load ptr, ptr %4, align 8, !tbaa !9
  %123 = load i32, ptr %7, align 4, !tbaa !11
  %124 = sext i32 %123 to i64
  %125 = getelementptr inbounds i32, ptr %122, i64 %124
  %126 = load i32, ptr %125, align 4, !tbaa !11
  %127 = sitofp i32 %126 to double
  %128 = load double, ptr %9, align 8, !tbaa !20
  %129 = fmul nsz double %127, %128
  %130 = load ptr, ptr %6, align 8, !tbaa !13
  %131 = load i32, ptr %7, align 4, !tbaa !11
  %132 = sext i32 %131 to i64
  %133 = getelementptr inbounds double, ptr %130, i64 %132
  store double %129, ptr %133, align 8, !tbaa !20
  br label %134

134:                                              ; preds = %94
  %135 = load i32, ptr %7, align 4, !tbaa !11
  %136 = add nsw i32 %135, 1
  store i32 %136, ptr %7, align 4, !tbaa !11
  br label %90, !llvm.loop !61

137:                                              ; preds = %90
  store i32 0, ptr %11, align 4
  br label %138

138:                                              ; preds = %137, %76, %14
  call void @llvm.lifetime.end.p0(i64 8, ptr %10) #9
  call void @llvm.lifetime.end.p0(i64 8, ptr %9) #9
  call void @llvm.lifetime.end.p0(i64 4, ptr %8) #9
  call void @llvm.lifetime.end.p0(i64 4, ptr %7) #9
  %139 = load i32, ptr %11, align 4
  switch i32 %139, label %141 [
    i32 0, label %140
    i32 1, label %140
  ]

140:                                              ; preds = %138, %138
  ret void

141:                                              ; preds = %138
  unreachable
}