; Function Attrs: nofree norecurse nosync nounwind memory(argmem: readwrite) uwtable
define internal void @lpc_apply_welch_window_c(ptr noundef readonly captures(none) %0, i64 noundef %1, ptr noundef writeonly captures(none) %2) #7 {
  %4 = icmp eq i64 %1, 1
  br i1 %4, label %5, label %6

5:                                                ; preds = %3
  store double 0.000000e+00, ptr %2, align 8, !tbaa !14
  br label %.loopexit

6:                                                ; preds = %3
  %7 = lshr i64 %1, 1
  %8 = trunc i64 %7 to i32
  %9 = sitofp i64 %1 to double
  %10 = fadd nsz double %9, -1.000000e+00
  %11 = fdiv nsz double 2.000000e+00, %10
  %12 = and i64 %1, 1
  %.not = icmp eq i64 %12, 0
  br i1 %.not, label %34, label %.preheader

.preheader:                                       ; preds = %6
  %13 = icmp sgt i32 %8, 0
  br i1 %13, label %.lr.ph.preheader, label %._crit_edge

.lr.ph.preheader:                                 ; preds = %.preheader
  %wide.trip.count = and i64 %7, 2147483647
  br label %.lr.ph

.lr.ph:                                           ; preds = %.lr.ph.preheader, %.lr.ph
  %indvars.iv = phi i64 [ 0, %.lr.ph.preheader ], [ %indvars.iv.next, %.lr.ph ]
  %14 = trunc nuw nsw i64 %indvars.iv to i32
  %15 = uitofp nneg i32 %14 to double
  %16 = fsub nsz double %11, %15
  %17 = fadd nsz double %16, -1.000000e+00
  %18 = fneg nsz double %17
  %19 = tail call nsz double @llvm.fmuladd.f64(double %18, double %17, double 1.000000e+00)
  %20 = getelementptr inbounds nuw i32, ptr %0, i64 %indvars.iv
  %21 = load i32, ptr %20, align 4, !tbaa !33
  %22 = sitofp i32 %21 to double
  %23 = fmul nsz double %19, %22
  %24 = getelementptr inbounds nuw double, ptr %2, i64 %indvars.iv
  store double %23, ptr %24, align 8, !tbaa !14
  %25 = xor i64 %indvars.iv, -1
  %26 = add i64 %1, %25
  %27 = getelementptr inbounds i32, ptr %0, i64 %26
  %28 = load i32, ptr %27, align 4, !tbaa !33
  %29 = sitofp i32 %28 to double
  %30 = fmul nsz double %19, %29
  %31 = getelementptr inbounds double, ptr %2, i64 %26
  store double %30, ptr %31, align 8, !tbaa !14
  %indvars.iv.next = add nuw nsw i64 %indvars.iv, 1
  %exitcond.not = icmp eq i64 %indvars.iv.next, %wide.trip.count
  br i1 %exitcond.not, label %._crit_edge, label %.lr.ph, !llvm.loop !48

._crit_edge:                                      ; preds = %.lr.ph, %.preheader
  %sext50 = shl i64 %7, 32
  %32 = ashr exact i64 %sext50, 29
  %33 = getelementptr inbounds i8, ptr %2, i64 %32
  store double 0.000000e+00, ptr %33, align 8, !tbaa !14
  br label %.loopexit

34:                                               ; preds = %6
  %sext = shl i64 %7, 32
  %35 = ashr exact i64 %sext, 32
  %36 = getelementptr inbounds double, ptr %2, i64 %35
  %37 = getelementptr inbounds i32, ptr %0, i64 %35
  %38 = icmp sgt i32 %8, 0
  br i1 %38, label %.lr.ph54, label %.loopexit

.lr.ph54:                                         ; preds = %34
  %39 = uitofp nneg i32 %8 to double
  %40 = fsub nsz double %11, %39
  %wide.trip.count59 = and i64 %7, 2147483647
  br label %41

41:                                               ; preds = %.lr.ph54, %41
  %indvars.iv56 = phi i64 [ 0, %.lr.ph54 ], [ %indvars.iv.next57, %41 ]
  %42 = trunc nuw nsw i64 %indvars.iv56 to i32
  %43 = uitofp nneg i32 %42 to double
  %44 = fadd nsz double %40, %43
  %45 = fneg nsz double %44
  %46 = tail call nsz double @llvm.fmuladd.f64(double %45, double %44, double 1.000000e+00)
  %47 = xor i64 %indvars.iv56, -1
  %48 = getelementptr inbounds i32, ptr %37, i64 %47
  %49 = load i32, ptr %48, align 4, !tbaa !33
  %50 = sitofp i32 %49 to double
  %51 = fmul nsz double %46, %50
  %52 = getelementptr inbounds double, ptr %36, i64 %47
  store double %51, ptr %52, align 8, !tbaa !14
  %53 = getelementptr inbounds nuw i32, ptr %37, i64 %indvars.iv56
  %54 = load i32, ptr %53, align 4, !tbaa !33
  %55 = sitofp i32 %54 to double
  %56 = fmul nsz double %46, %55
  %57 = getelementptr inbounds nuw double, ptr %36, i64 %indvars.iv56
  store double %56, ptr %57, align 8, !tbaa !14
  %indvars.iv.next57 = add nuw nsw i64 %indvars.iv56, 1
  %exitcond60.not = icmp eq i64 %indvars.iv.next57, %wide.trip.count59
  br i1 %exitcond60.not, label %.loopexit, label %41, !llvm.loop !49

.loopexit:                                        ; preds = %41, %34, %._crit_edge, %5
  ret void
}